Certificate:
    Data:
        Version: 3 (0x2)
        Serial Number: 19138542 (0x12407ee)
        Signature Algorithm: sha1WithRSAEncryption
        Issuer: C=US, ST=Texas, L=Plano, O=PepsiCo, Inc., OU=PepsiCo Business Solutions Group, CN=PBSG/emailAddress=hostmaster@pbsg.com
        Validity
            Not Before: Oct 13 20:45:04 2010 GMT
            Not After : Oct 12 20:45:04 2012 GMT
        Subject: C=US, ST=Texas, O=PepsiCo, Inc., OU=Web Hosting, CN=corp.pep.pvt/emailAddress=hostmaster@pepsico.com
        Subject Public Key Info:
            Public Key Algorithm: rsaEncryption
            RSA Public Key: (2048 bit)
                Modulus (2048 bit):
                    00:d1:7a:02:9a:58:25:f5:be:2b:0c:67:b7:46:c0:
                    65:1f:32:ca:b7:42:45:47:6b:eb:5f:c8:7b:92:8b:
                    30:ea:62:a3:63:fd:e7:97:f8:15:71:69:87:d2:3f:
                    33:12:1c:37:2e:71:85:a6:46:b5:ce:cc:aa:80:8b:
                    f8:43:26:f5:9e:7a:d1:98:84:97:d1:2f:09:46:89:
                    de:65:db:ea:c3:69:d9:97:cc:21:fd:eb:ad:13:3a:
                    1e:3d:65:49:86:7a:ae:e7:67:d0:eb:57:c7:11:a0:
                    3b:7a:33:8e:c3:f3:e7:f1:90:8d:36:e1:a1:eb:f1:
                    46:99:3a:59:95:0a:36:c8:71:a2:35:e4:5b:0f:e2:
                    05:37:21:9b:87:93:59:78:88:ba:51:62:23:3d:69:
                    3f:2b:62:d0:54:c7:97:f3:94:9b:c2:58:1c:6a:94:
                    eb:26:50:6f:1f:05:9e:f2:ca:09:30:0c:32:8e:74:
                    f7:f5:70:fb:36:4a:24:51:35:4b:73:97:0c:57:9e:
                    f7:ed:06:d9:50:10:9c:2a:76:03:65:76:bc:fd:ce:
                    25:74:d6:8c:33:23:14:25:4f:8a:e4:9b:bf:94:41:
                    69:9f:81:52:8c:be:93:19:4e:3f:48:9d:4b:49:89:
                    e8:3a:30:a4:9f:1f:7a:56:b1:38:81:10:34:37:f4:
                    d1:2d
                Exponent: 65537 (0x10001)
        X509v3 extensions:
            X509v3 Key Usage: 
                Digital Signature
            X509v3 Extended Key Usage: 
                Code Signing, Microsoft Individual Code Signing, Microsoft Commercial Code Signing
    Signature Algorithm: sha1WithRSAEncryption
        48:9d:bb:8f:d2:2b:dc:59:10:dd:77:22:ff:fa:44:ba:66:3d:
        4a:36:65:73:46:37:69:fd:a9:d4:ee:04:46:46:5e:51:5d:9b:
        a3:4e:29:bd:fc:f9:13:26:2e:c9:eb:eb:19:74:72:dc:47:9b:
        7e:97:39:c4:6e:75:84:43:79:bd:5d:52:92:10:fc:4c:19:1b:
        7f:7f:32:f3:bd:bb:8e:f6:09:7a:e3:ff:f4:eb:9f:dd:cf:0a:
        f8:a5:1f:77:77:d9:eb:d3:ef:6a:dd:27:66:95:09:50:ff:cc:
        52:1a:36:a0:25:29:7a:d9:e4:db:85:0c:dd:64:a0:2f:0c:01:
        04:a1
-----BEGIN CERTIFICATE-----
MIIDZzCCAtCgAwIBAgIEASQH7jANBgkqhkiG9w0BAQUFADCBozELMAkGA1UEBhMC
VVMxDjAMBgNVBAgTBVRleGFzMQ4wDAYDVQQHEwVQbGFubzEWMBQGA1UEChMNUGVw
c2lDbywgSW5jLjEpMCcGA1UECxMgUGVwc2lDbyBCdXNpbmVzcyBTb2x1dGlvbnMg
R3JvdXAxDTALBgNVBAMTBFBCU0cxIjAgBgkqhkiG9w0BCQEWE2hvc3RtYXN0ZXJA
cGJzZy5jb20wHhcNMTAxMDEzMjA0NTA0WhcNMTIxMDEyMjA0NTA0WjCBiTELMAkG
A1UEBhMCVVMxDjAMBgNVBAgTBVRleGFzMRYwFAYDVQQKEw1QZXBzaUNvLCBJbmMu
MRQwEgYDVQQLEwtXZWIgSG9zdGluZzEVMBMGA1UEAxMMY29ycC5wZXAucHZ0MSUw
IwYJKoZIhvcNAQkBFhZob3N0bWFzdGVyQHBlcHNpY28uY29tMIIBIjANBgkqhkiG
9w0BAQEFAAOCAQ8AMIIBCgKCAQEA0XoCmlgl9b4rDGe3RsBlHzLKt0JFR2vrX8h7
kosw6mKjY/3nl/gVcWmH0j8zEhw3LnGFpka1zsyqgIv4Qyb1nnrRmISX0S8JRone
Zdvqw2nZl8wh/eutEzoePWVJhnqu52fQ61fHEaA7ejOOw/Pn8ZCNNuGh6/FGmTpZ
lQo2yHGiNeRbD+IFNyGbh5NZeIi6UWIjPWk/K2LQVMeX85SbwlgcapTrJlBvHwWe
8soJMAwyjnT39XD7NkokUTVLc5cMV5737QbZUBCcKnYDZXa8/c4ldNaMMyMUJU+K
5Ju/lEFpn4FSjL6TGU4/SJ1LSYnoOjCknx96VrE4gRA0N/TRLQIDAQABozwwOjAL
BgNVHQ8EBAMCB4AwKwYDVR0lBCQwIgYIKwYBBQUHAwMGCisGAQQBgjcCARUGCisG
AQQBgjcCARYwDQYJKoZIhvcNAQEFBQADgYEASJ27j9Ir3FkQ3Xci//pEumY9SjZl
c0Y3af2p1O4ERkZeUV2bo04pvfz5EyYuyevrGXRy3Eebfpc5xG51hEN5vV1SkhD8
TBkbf38y8727jvYJeuP/9Ouf3c8K+KUfd3fZ69Pvat0nZpUJUP/MUho2oCUpetnk
24UM3WSgLwwBBKE=
-----END CERTIFICATE-----
